ccopy_reg
_reconstructor
p0
(cjob
job
p1
c__builtin__
object
p2
Ntp3
Rp4
(dp5
S'remoteId'
p6
I0
sS'localId'
p7
I0
sS'destPath'
p8
V/home/bramakr
p9
sS'jobName'
p10
S'hello.submit'
p11
sS'transferInpFile'
p12
NsS'transferOutFile'
p13
Nsb.