ccopy_reg
_reconstructor
p0
(cjob
job
p1
c__builtin__
object
p2
Ntp3
Rp4
(dp5
S'remoteId'
p6
S''
p7
sS'localId'
p8
I0
sS'destPath'
p9
V/home/bramakr
p10
sS'jobName'
p11
S'job.pbs'
p12
sS'transferInpFile'
p13
NsS'transferOutFile'
p14
Nsb.